; ModuleID = '50/226.c'
source_filename = "50/226.c"
target datalayout = "e-m:e-p270:32:32-p271:32:32-p272:64:64-i64:64-f80:128-n8:16:32:64-S128"
target triple = "x86_64-pc-linux-gnu"

%struct.mounth = type { i32, i32 }

@M = dso_local global [12 x %struct.mounth] [%struct.mounth { i32 1, i32 31 }, %struct.mounth { i32 2, i32 28 }, %struct.mounth { i32 3, i32 31 }, %struct.mounth { i32 4, i32 30 }, %struct.mounth { i32 5, i32 31 }, %struct.mounth { i32 6, i32 30 }, %struct.mounth { i32 7, i32 31 }, %struct.mounth { i32 8, i32 31 }, %struct.mounth { i32 9, i32 30 }, %struct.mounth { i32 10, i32 31 }, %struct.mounth { i32 11, i32 30 }, %struct.mounth { i32 12, i32 31 }], align 16
@.str = private unnamed_addr constant [3 x i8] c"%d\00", align 1
@.str.1 = private unnamed_addr constant [3 x i8] c"1\0A\00", align 1
@.str.2 = private unnamed_addr constant [4 x i8] c"%d\0A\00", align 1

; Function Attrs: noinline nounwind uwtable
define dso_local void @main() #0 {
  %1 = alloca i32, align 4
  %2 = alloca i32, align 4
  %3 = alloca i32, align 4
  store i32 12, i32* %3, align 4
  %4 = call i32 (i8*, ...) @__isoc99_scanf(i8* getelementptr inbounds ([3 x i8], [3 x i8]* @.str, i64 0, i64 0), i32* %1)
  %5 = load i32, i32* %1, align 4
  %6 = load i32, i32* %3, align 4
  %7 = add nsw i32 %5, %6
  %8 = srem i32 %7, 7
  %9 = icmp eq i32 %8, 5
  br i1 %9, label %10, label %12

10:                                               ; preds = %0
  %11 = call i32 (i8*, ...) @printf(i8* getelementptr inbounds ([3 x i8], [3 x i8]* @.str.1, i64 0, i64 0))
  br label %12

12:                                               ; preds = %10, %0
  store i32 0, i32* %2, align 4
  br label %13

13:                                               ; preds = %34, %12
  %14 = load i32, i32* %2, align 4
  %15 = icmp slt i32 %14, 11
  br i1 %15, label %16, label %37

16:                                               ; preds = %13
  %17 = load i32, i32* %3, align 4
  %18 = load i32, i32* %2, align 4
  %19 = sext i32 %18 to i64
  %20 = getelementptr inbounds [12 x %struct.mounth], [12 x %struct.mounth]* @M, i64 0, i64 %19
  %21 = getelementptr inbounds %struct.mounth, %struct.mounth* %20, i32 0, i32 1
  %22 = load i32, i32* %21, align 4
  %23 = add nsw i32 %17, %22
  store i32 %23, i32* %3, align 4
  %24 = load i32, i32* %1, align 4
  %25 = load i32, i32* %3, align 4
  %26 = add nsw i32 %24, %25
  %27 = srem i32 %26, 7
  %28 = icmp eq i32 %27, 5
  br i1 %28, label %29, label %33

29:                                               ; preds = %16
  %30 = load i32, i32* %2, align 4
  %31 = add nsw i32 %30, 2
  %32 = call i32 (i8*, ...) @printf(i8* getelementptr inbounds ([4 x i8], [4 x i8]* @.str.2, i64 0, i64 0), i32 %31)
  br label %33

33:                                               ; preds = %29, %16
  br label %34

34:                                               ; preds = %33
  %35 = load i32, i32* %2, align 4
  %36 = add nsw i32 %35, 1
  store i32 %36, i32* %2, align 4
  br label %13

37:                                               ; preds = %13
  ret void
}

declare dso_local i32 @__isoc99_scanf(i8*, ...) #1

declare dso_local i32 @printf(i8*, ...) #1


!llvm.module.flags = !{!0}
!llvm.ident = !{!1}

!0 = !{i32 1, !"wchar_size", i32 4}
!1 = !{!"clang version 10.0.0-4ubuntu1 "}
